Microchip MPLAB XC8 Compiler V1.35 ()

Linker command line:

--edf=C:\Program Files (x86)\Microchip\xc8\v1.35\dat\en_msgs.txt -cs \
  -h+dist/default/production\BRT_AN_006_Source.X.production.sym \
  --cmf=dist/default/production\BRT_AN_006_Source.X.production.cmf -z \
  -Q18F46K22 -oC:\Users\GRAHAM~1.BRO\AppData\Local\Temp\sb58.2 \
  -Mdist/default/production/BRT_AN_006_Source.X.production.map -E1 -ver=XC8 \
  -ASTACK=060h-0f37h -pstack=STACK -ACODE=00h-0FFFFh -ACONST=00h-0FFFFh \
  -ASMALLCONST=01000h-010FFhx240 -AMEDIUMCONST=01000h-0FFFFh \
  -ACOMRAM=01h-05Fh -AABS1=00h-0F37h -ABIGRAM=01h-0F37h \
  -ARAM=060h-0FFh,0100h-01FFhx14,0F00h-0F37h -ABANK0=060h-0FFh \
  -ABANK1=0100h-01FFh -ABANK2=0200h-02FFh -ABANK3=0300h-03FFh \
  -ABANK4=0400h-04FFh -ABANK5=0500h-05FFh -ABANK6=0600h-06FFh \
  -ABANK7=0700h-07FFh -ABANK8=0800h-08FFh -ABANK9=0900h-09FFh \
  -ABANK10=0A00h-0AFFh -ABANK11=0B00h-0BFFh -ABANK12=0C00h-0CFFh \
  -ABANK13=0D00h-0DFFh -ABANK14=0E00h-0EFFh -ABANK15=0F00h-0F37h \
  -ASFR=0F38h-0F5Fh,0F60h-0FFFh \
  -preset_vec=00h,intcode,intcodelo,powerup,init,end_init -pramtop=01000h \
  -psmallconst=SMALLCONST -pmediumconst=MEDIUMCONST -pconst=CONST \
  -AFARRAM=00h-00h -ACONFIG=0300000h-030000Dh -pconfig=CONFIG \
  -AIDLOC=0200000h-0200007h -pidloc=IDLOC -AEEDATA=0F00000h-0F003FFh \
  -peeprom_data=EEDATA \
  -prdata=COMRAM,nvrram=COMRAM,nvbit=COMRAM,rbss=COMRAM,rbit=COMRAM \
  -pfarbss=FARRAM,fardata=FARRAM,nvFARRAM=FARRAM \
  -pintsave_regs=BIGRAM,bigbss=BIGRAM,bigdata=BIGRAM -pbss=RAM \
  -pidata=CODE,irdata=CODE,ibigdata=CODE,ifardata=CODE -prparam=COMRAM \
  C:\Users\GRAHAM~1.BRO\AppData\Local\Temp\sb58.obj \
  dist/default/production\BRT_AN_006_Source.X.production.obj 

Object code version is 3.11

Machine type is 18F46K22

Call graph: (short form)




                Name                               Link     Load   Length Selector   Space Scale
C:\Users\GRAHAM~1.BRO\AppData\Local\Temp\sb58.obj
                end_init                              0        0        4        0       0
                idloc                            200000   200000        8   200000       0
                config                           300000   300000        E   300000       0
dist/default/production\BRT_AN_006_Source.X.production.obj
                text25                             F66A     F66A       3C     7B35       0
                text24                             F4F2     F4F2       24     7A79       0
                text23                             F4D2     F4D2       20     7A69       0
                text22                             F53A     F53A       26     7A9D       0
                text21                             F46E     F46E        6     7A37       0
                text20                             F474     F474        6     7A3A       0
                text19                             F606     F606       32     7B03       0
                text18                             F560     F560       26     7AB0       0
                text17                             F83A     F83A      16A     7C1D       0
                text16                             F78A     F78A       56     7BC5       0
                text15                             F7E0     F7E0       5A     7BF0       0
                text14                             F6EC     F6EC       4C     7B76       0
                text13                             F9A4     F9A4      2B4     7CD2       0
                text12                             F586     F586       28     7AC3       0
                text11                             F494     F494       14     7A4A       0
                text10                             F5D8     F5D8       2E     7AEC       0
                text9                              F4BC     F4BC       16     7A5E       0
                text8                              F5AE     F5AE       2A     7AD7       0
                text7                              F484     F484       10     7A42       0
                text6                              F516     F516       24     7A8B       0
                text5                              F738     F738       52     7B9C       0
                text4                              F466     F466        4     7A33       0
                text3                              F46A     F46A        4     7A35       0
                text2                              FC58     FC58      3A8     7E2C       0
                text1                              F6A6     F6A6       46     7B53       0
                text0                              F4A8     F4A8       14     7A54       0
                cstackCOMRAM                         2C       2C       24        1       1
                dataCOMRAM                           50       50        A        1       1
                bssCOMRAM                             1        1       2B        1       1
                cinit                              F638     F638       32     7B1C       0
                idataCOMRAM                        F47A     F47A        A     F47A       0

TOTAL           Name                               Link     Load   Length     Space
        CLASS   STACK          

        CLASS   CODE           
                end_init                              0        0        4         0
                text25                             F66A     F66A       3C         0
                text24                             F4F2     F4F2       24         0
                text23                             F4D2     F4D2       20         0
                text22                             F53A     F53A       26         0
                text21                             F46E     F46E        6         0
                text20                             F474     F474        6         0
                text19                             F606     F606       32         0
                text18                             F560     F560       26         0
                text17                             F83A     F83A      16A         0
                text16                             F78A     F78A       56         0
                text15                             F7E0     F7E0       5A         0
                text14                             F6EC     F6EC       4C         0
                text13                             F9A4     F9A4      2B4         0
                text12                             F586     F586       28         0
                text11                             F494     F494       14         0
                text10                             F5D8     F5D8       2E         0
                text9                              F4BC     F4BC       16         0
                text8                              F5AE     F5AE       2A         0
                text7                              F484     F484       10         0
                text6                              F516     F516       24         0
                text5                              F738     F738       52         0
                text4                              F466     F466        4         0
                text3                              F46A     F46A        4         0
                text2                              FC58     FC58      3A8         0
                text1                              F6A6     F6A6       46         0
                text0                              F4A8     F4A8       14         0
                cinit                              F638     F638       32         0
                idataCOMRAM                        F47A     F47A        A         0

        CLASS   CONST          

        CLASS   SMALLCONST     

        CLASS   MEDIUMCONST    

        CLASS   COMRAM         
                cstackCOMRAM                         2C       2C       24         1
                dataCOMRAM                           50       50        A         1
                bssCOMRAM                             1        1       2B         1

        CLASS   ABS1           

        CLASS   BIGRAM         

        CLASS   RAM            

        CLASS   BANK0          

        CLASS   BANK1          

        CLASS   BANK2          

        CLASS   BANK3          

        CLASS   BANK4          

        CLASS   BANK5          

        CLASS   BANK6          

        CLASS   BANK7          

        CLASS   BANK8          

        CLASS   BANK9          

        CLASS   BANK10         

        CLASS   BANK11         

        CLASS   BANK12         

        CLASS   BANK13         

        CLASS   BANK14         

        CLASS   BANK15         

        CLASS   SFR            

        CLASS   FARRAM         

        CLASS   CONFIG         
                config                           300000   300000        E         0

        CLASS   IDLOC          
                idloc                            200000   200000        8         0

        CLASS   EEDATA         



SEGMENTS        Name                           Load    Length   Top    Selector   Space  Class

                reset_vec                      000000  000004  000004         0       0  CODE    
                bssCOMRAM                      000001  000059  00005A         1       1  COMRAM  
                text4                          00F466  000004  00F46A      7A33       0  CODE    
                text3                          00F46A  000004  00F46E      7A35       0  CODE    
                text21                         00F46E  000006  00F474      7A37       0  CODE    
                text20                         00F474  000006  00F47A      7A3A       0  CODE    
                idataCOMRAM                    00F47A  00000A  00F484      F47A       0  CODE    
                text7                          00F484  000010  00F494      7A42       0  CODE    
                text11                         00F494  000014  00F4A8      7A4A       0  CODE    
                text0                          00F4A8  000014  00F4BC      7A54       0  CODE    
                text9                          00F4BC  000016  00F4D2      7A5E       0  CODE    
                text23                         00F4D2  000020  00F4F2      7A69       0  CODE    
                text24                         00F4F2  000024  00F516      7A79       0  CODE    
                text6                          00F516  000024  00F53A      7A8B       0  CODE    
                text22                         00F53A  000026  00F560      7A9D       0  CODE    
                text18                         00F560  000026  00F586      7AB0       0  CODE    
                text12                         00F586  000028  00F5AE      7AC3       0  CODE    
                text8                          00F5AE  00002A  00F5D8      7AD7       0  CODE    
                text10                         00F5D8  00002E  00F606      7AEC       0  CODE    
                text19                         00F606  000032  00F638      7B03       0  CODE    
                cinit                          00F638  000032  00F66A      7B1C       0  CODE    
                text25                         00F66A  00003C  00F6A6      7B35       0  CODE    
                text1                          00F6A6  000046  00F6EC      7B53       0  CODE    
                text14                         00F6EC  00004C  00F738      7B76       0  CODE    
                text5                          00F738  000052  00F78A      7B9C       0  CODE    
                text16                         00F78A  000056  00F7E0      7BC5       0  CODE    
                text15                         00F7E0  00005A  00F83A      7BF0       0  CODE    
                text17                         00F83A  00016A  00F9A4      7C1D       0  CODE    
                text13                         00F9A4  0002B4  00FC58      7CD2       0  CODE    
                text2                          00FC58  0003A8  010000      7E2C       0  CODE    
                idloc                          200000  000008  200008    200000       0  IDLOC   
                config                         300000  00000E  30000E    300000       0  CONFIG  


UNUSED ADDRESS RANGES

        Name                Unused          Largest block    Delta
        BANK0            000060-0000FF               A0
        BANK1            000100-0001FF              100
        BANK10           000A00-000AFF              100
        BANK11           000B00-000BFF              100
        BANK12           000C00-000CFF              100
        BANK13           000D00-000DFF              100
        BANK14           000E00-000EFF              100
        BANK15           000F00-000F37               38
        BANK2            000200-0002FF              100
        BANK3            000300-0003FF              100
        BANK4            000400-0004FF              100
        BANK5            000500-0005FF              100
        BANK6            000600-0006FF              100
        BANK7            000700-0007FF              100
        BANK8            000800-0008FF              100
        BANK9            000900-0009FF              100
        BIGRAM           00005A-000F37              EDE
        CODE             000004-00F465             F462
        COMRAM           00005A-00005F                6
        CONST            000004-00F465             F462
        EEDATA           F00000-F003FF              400
        MEDIUMCONST      001000-00F465             E466
        RAM              000060-000F37              100
        SFR              000F38-000FFF               28
        SMALLCONST       001000-00F465              100
        STACK            000060-000F37              ED8

                                  Symbol Table

?_EVE_IncCMDOffset                cstackCOMRAM 00002C
?_EVE_MemRead32                   cstackCOMRAM 00003E
?_EVE_Read32                      cstackCOMRAM 00002E
?_EVE_WaitCmdFifoEmpty            cstackCOMRAM 000046
EVE_AddrForRd@dummyRead           cstackCOMRAM 000032
EVE_AddrForRd@ftAddress           cstackCOMRAM 00002E
EVE_AddrForWr@dummyRead           cstackCOMRAM 000032
EVE_AddrForWr@ftAddress           cstackCOMRAM 00002E
EVE_CmdWrite@EVECmd               cstackCOMRAM 00002F
EVE_CmdWrite@Param                cstackCOMRAM 00002E
EVE_CmdWrite@dummyRead            cstackCOMRAM 000030
EVE_IncCMDOffset@commandSize      cstackCOMRAM 00002E
EVE_IncCMDOffset@currentOffset    cstackCOMRAM 00002C
EVE_IncCMDOffset@newOffset        cstackCOMRAM 00002F
EVE_MemRead32@ftAddress           cstackCOMRAM 00003E
EVE_MemRead32@ftData32            cstackCOMRAM 000042
EVE_MemRead8@ftAddress            cstackCOMRAM 000033
EVE_MemRead8@ftData8              cstackCOMRAM 000037
EVE_MemWrite16@ftAddress          cstackCOMRAM 000033
EVE_MemWrite16@ftData16           cstackCOMRAM 000037
EVE_MemWrite32@ftAddress          cstackCOMRAM 000033
EVE_MemWrite32@ftData32           cstackCOMRAM 000037
EVE_MemWrite8@ftAddress           cstackCOMRAM 000033
EVE_MemWrite8@ftData8             cstackCOMRAM 000037
EVE_Read32@ftData32               cstackCOMRAM 000036
EVE_Read32@tempData32             cstackCOMRAM 00003A
EVE_Read8@ftData8                 cstackCOMRAM 00002E
EVE_WaitCmdFifoEmpty@ReadPointer  cstackCOMRAM 000048
EVE_WaitCmdFifoEmpty@WritePointer cstackCOMRAM 00004A
EVE_Write16@dummyRead             cstackCOMRAM 000030
EVE_Write16@ftData16              cstackCOMRAM 00002E
EVE_Write32@dummyRead             cstackCOMRAM 000032
EVE_Write32@ftData32              cstackCOMRAM 00002E
EVE_Write8@dummyRead              cstackCOMRAM 00002E
EVE_Write8@ftData8                cstackCOMRAM 00002F
MCU_Delay_500ms@dly               cstackCOMRAM 00002D
MCU_SPIReadWrite@DataRead         cstackCOMRAM 00002D
MCU_SPIReadWrite@DataToWrite      cstackCOMRAM 00002C
_ANSELA                           (abs)        000F38
_ANSELB                           (abs)        000F39
_ANSELC                           (abs)        000F3A
_ANSELD                           (abs)        000F3B
_APP_FlashingDot                  text13       00F9A4
_APP_Init                         text2        00FC58
_BAUDCON2bits                     (abs)        000F70
_EVE_AddrForRd                    text18       00F560
_EVE_AddrForWr                    text23       00F4D2
_EVE_CmdWrite                     text12       00F586
_EVE_IncCMDOffset                 text25       00F66A
_EVE_MemRead32                    text16       00F78A
_EVE_MemRead8                     text10       00F5D8
_EVE_MemWrite16                   text8        00F5AE
_EVE_MemWrite32                   text19       00F606
_EVE_MemWrite8                    text6        00F516
_EVE_Read32                       text17       00F83A
_EVE_Read8                        text11       00F494
_EVE_WaitCmdFifoEmpty             text15       00F7E0
_EVE_Write16                      text9        00F4BC
_EVE_Write32                      text22       00F53A
_EVE_Write8                       text7        00F484
_FT81x_GPIO                       bssCOMRAM    000021
_LATBbits                         (abs)        000F8A
_LATCbits                         (abs)        000F8B
_MCU_CShigh                       text21       00F46E
_MCU_CSlow                        text20       00F474
_MCU_Delay_20ms                   text5        00F738
_MCU_Delay_500ms                  text14       00F6EC
_MCU_Init                         text1        00F6A6
_MCU_PDhigh                       text4        00F466
_MCU_PDlow                        text3        00F46A
_MCU_SPIReadWrite                 text24       00F4F2
_PIE3bits                         (abs)        000FA3
_PIR3bits                         (abs)        000FA4
_RCREG2                           (abs)        000F74
_RCSTA2bits                       (abs)        000F71
_SPBRG2                           (abs)        000F75
_SSP1BUF                          (abs)        000FC9
_SSP1CON1bits                     (abs)        000FC6
_SSP1STATbits                     (abs)        000FC7
_SlideVal                         bssCOMRAM    000005
_TRISCbits                        (abs)        000F94
_TRISDbits                        (abs)        000F95
_TXREG2                           (abs)        000F73
_TXSTA2bits                       (abs)        000F72
_TagVal                           bssCOMRAM    000022
_TrackerVal                       bssCOMRAM    000001
__CFG_BOREN$ON                    (abs)        000000
__CFG_CP0$OFF                     (abs)        000000
__CFG_CP1$OFF                     (abs)        000000
__CFG_CP2$OFF                     (abs)        000000
__CFG_CP3$OFF                     (abs)        000000
__CFG_CPB$OFF                     (abs)        000000
__CFG_CPD$OFF                     (abs)        000000
__CFG_FCMEN$ON                    (abs)        000000
__CFG_FOSC$HSMP                   (abs)        000000
__CFG_IESO$ON                     (abs)        000000
__CFG_MCLRE$EXTMCLR               (abs)        000000
__CFG_PLLCFG$ON                   (abs)        000000
__CFG_PRICLKEN$ON                 (abs)        000000
__CFG_PWRTEN$OFF                  (abs)        000000
__CFG_WDTEN$OFF                   (abs)        000000
__HRAM                            (abs)        000000
__Habs1                           abs1         000000
__Hbank0                          bank0        000000
__Hbank1                          bank1        000000
__Hbank10                         bank10       000000
__Hbank11                         bank11       000000
__Hbank12                         bank12       000000
__Hbank13                         bank13       000000
__Hbank14                         bank14       000000
__Hbank15                         bank15       000000
__Hbank2                          bank2        000000
__Hbank3                          bank3        000000
__Hbank4                          bank4        000000
__Hbank5                          bank5        000000
__Hbank6                          bank6        000000
__Hbank7                          bank7        000000
__Hbank8                          bank8        000000
__Hbank9                          bank9        000000
__Hbigbss                         bigbss       000000
__Hbigdata                        bigdata      000000
__Hbigram                         bigram       000000
__Hbss                            bss          000000
__HbssCOMRAM                      bssCOMRAM    000000
__Hcinit                          cinit        000000
__Hclrtext                        clrtext      000000
__Hcomram                         comram       000000
__Hconfig                         config       30000E
__Hconst                          const        000000
__HcstackCOMRAM                   cstackCOMRAM 000000
__Hdata                           data         000000
__HdataCOMRAM                     dataCOMRAM   000000
__Heeprom_data                    eeprom_data  000000
__Hend_init                       end_init     000004
__Hfarbss                         farbss       000000
__Hfardata                        fardata      000000
__Hibigdata                       ibigdata     000000
__Hidata                          idata        000000
__HidataCOMRAM                    idataCOMRAM  000000
__Hidloc                          idloc        200008
__Hifardata                       ifardata     000000
__Hinit                           init         000000
__Hintcode                        intcode      000000
__Hintcode_body                   intcode_body 000000
__Hintcodelo                      intcodelo    000000
__Hintentry                       intentry     000000
__Hintret                         intret       000000
__Hintsave_regs                   intsave_regs 000000
__Hirdata                         irdata       000000
__Hmediumconst                    mediumconst  000000
__HnvFARRAM                       nvFARRAM     000000
__Hnvbit                          nvbit        000000
__Hnvrram                         nvrram       000000
__Hparam                          rparam       000000
__Hpowerup                        powerup      000000
__Hram                            ram          000000
__Hramtop                         ramtop       001000
__Hrbit                           rbit         000000
__Hrbss                           rbss         000000
__Hrdata                          rdata        000000
__Hreset_vec                      reset_vec    000000
__Hrparam                         rparam       000000
__Hsfr                            sfr          000000
__Hsmallconst                     smallconst   000000
__Hspace_0                        (abs)        30000E
__Hspace_1                        (abs)        00005A
__Hspace_2                        (abs)        000000
__Hstack                          stack        000000
__Hstruct                         struct       000000
__Htemp                           temp         000000
__Htext                           text         000000
__Htext0                          text0        000000
__Htext1                          text1        000000
__Htext10                         text10       000000
__Htext11                         text11       000000
__Htext12                         text12       000000
__Htext13                         text13       000000
__Htext14                         text14       000000
__Htext15                         text15       000000
__Htext16                         text16       000000
__Htext17                         text17       000000
__Htext18                         text18       000000
__Htext19                         text19       000000
__Htext2                          text2        000000
__Htext20                         text20       000000
__Htext21                         text21       000000
__Htext22                         text22       000000
__Htext23                         text23       000000
__Htext24                         text24       000000
__Htext25                         text25       000000
__Htext3                          text3        000000
__Htext4                          text4        000000
__Htext5                          text5        000000
__Htext6                          text6        000000
__Htext7                          text7        000000
__Htext8                          text8        000000
__Htext9                          text9        000000
__LRAM                            (abs)        000001
__Labs1                           abs1         000000
__Lbank0                          bank0        000000
__Lbank1                          bank1        000000
__Lbank10                         bank10       000000
__Lbank11                         bank11       000000
__Lbank12                         bank12       000000
__Lbank13                         bank13       000000
__Lbank14                         bank14       000000
__Lbank15                         bank15       000000
__Lbank2                          bank2        000000
__Lbank3                          bank3        000000
__Lbank4                          bank4        000000
__Lbank5                          bank5        000000
__Lbank6                          bank6        000000
__Lbank7                          bank7        000000
__Lbank8                          bank8        000000
__Lbank9                          bank9        000000
__Lbigbss                         bigbss       000000
__Lbigdata                        bigdata      000000
__Lbigram                         bigram       000000
__Lbss                            bss          000000
__LbssCOMRAM                      bssCOMRAM    000000
__Lcinit                          cinit        000000
__Lclrtext                        clrtext      000000
__Lcomram                         comram       000000
__Lconfig                         config       300000
__Lconst                          const        000000
__LcstackCOMRAM                   cstackCOMRAM 000000
__Ldata                           data         000000
__LdataCOMRAM                     dataCOMRAM   000000
__Leeprom_data                    eeprom_data  000000
__Lend_init                       end_init     000000
__Lfarbss                         farbss       000000
__Lfardata                        fardata      000000
__Libigdata                       ibigdata     000000
__Lidata                          idata        000000
__LidataCOMRAM                    idataCOMRAM  000000
__Lidloc                          idloc        200000
__Lifardata                       ifardata     000000
__Linit                           init         000000
__Lintcode                        intcode      000000
__Lintcode_body                   intcode_body 000000
__Lintcodelo                      intcodelo    000000
__Lintentry                       intentry     000000
__Lintret                         intret       000000
__Lintsave_regs                   intsave_regs 000000
__Lirdata                         irdata       000000
__Lmediumconst                    mediumconst  000000
__LnvFARRAM                       nvFARRAM     000000
__Lnvbit                          nvbit        000000
__Lnvrram                         nvrram       000000
__Lparam                          rparam       000000
__Lpowerup                        powerup      000000
__Lram                            ram          000000
__Lramtop                         ramtop       001000
__Lrbit                           rbit         000000
__Lrbss                           rbss         000000
__Lrdata                          rdata        000000
__Lreset_vec                      reset_vec    000000
__Lrparam                         rparam       000000
__Lsfr                            sfr          000000
__Lsmallconst                     smallconst   000000
__Lspace_0                        (abs)        000000
__Lspace_1                        (abs)        000000
__Lspace_2                        (abs)        000000
__Lstack                          stack        000000
__Lstruct                         struct       000000
__Ltemp                           temp         000000
__Ltext                           text         000000
__Ltext0                          text0        000000
__Ltext1                          text1        000000
__Ltext10                         text10       000000
__Ltext11                         text11       000000
__Ltext12                         text12       000000
__Ltext13                         text13       000000
__Ltext14                         text14       000000
__Ltext15                         text15       000000
__Ltext16                         text16       000000
__Ltext17                         text17       000000
__Ltext18                         text18       000000
__Ltext19                         text19       000000
__Ltext2                          text2        000000
__Ltext20                         text20       000000
__Ltext21                         text21       000000
__Ltext22                         text22       000000
__Ltext23                         text23       000000
__Ltext24                         text24       000000
__Ltext25                         text25       000000
__Ltext3                          text3        000000
__Ltext4                          text4        000000
__Ltext5                          text5        000000
__Ltext6                          text6        000000
__Ltext7                          text7        000000
__Ltext8                          text8        000000
__Ltext9                          text9        000000
__S0                              (abs)        30000E
__S1                              (abs)        00005A
__S2                              (abs)        000000
___inthi_sp                       stack        000000
___intlo_sp                       stack        000000
___param_bank                     (abs)        000010
___rparam_used                    (abs)        000001
___sp                             stack        000000
__accesstop                       (abs)        000060
__activetblptr                    (abs)        000000
__end_of_APP_FlashingDot          text13       00FC58
__end_of_APP_Init                 text2        010000
__end_of_EVE_AddrForRd            text18       00F586
__end_of_EVE_AddrForWr            text23       00F4F2
__end_of_EVE_CmdWrite             text12       00F5AE
__end_of_EVE_IncCMDOffset         text25       00F6A6
__end_of_EVE_MemRead32            text16       00F7E0
__end_of_EVE_MemRead8             text10       00F606
__end_of_EVE_MemWrite16           text8        00F5D8
__end_of_EVE_MemWrite32           text19       00F638
__end_of_EVE_MemWrite8            text6        00F53A
__end_of_EVE_Read32               text17       00F9A4
__end_of_EVE_Read8                text11       00F4A8
__end_of_EVE_WaitCmdFifoEmpty     text15       00F83A
__end_of_EVE_Write16              text9        00F4D2
__end_of_EVE_Write32              text22       00F560
__end_of_EVE_Write8               text7        00F494
__end_of_MCU_CShigh               text21       00F474
__end_of_MCU_CSlow                text20       00F47A
__end_of_MCU_Delay_20ms           text5        00F78A
__end_of_MCU_Delay_500ms          text14       00F738
__end_of_MCU_Init                 text1        00F6EC
__end_of_MCU_PDhigh               text4        00F46A
__end_of_MCU_PDlow                text3        00F46E
__end_of_MCU_SPIReadWrite         text24       00F516
__end_of__initialization          cinit        00F664
__end_of_main                     text0        00F4BC
__initialization                  cinit        00F638
__mediumconst                     mediumconst  000000
__pbssCOMRAM                      bssCOMRAM    000001
__pcinit                          cinit        00F638
__pcstackCOMRAM                   cstackCOMRAM 00002C
__pdataCOMRAM                     dataCOMRAM   000050
__pidataCOMRAM                    idataCOMRAM  00F47A
__ptext0                          text0        00F4A8
__ptext1                          text1        00F6A6
__ptext10                         text10       00F5D8
__ptext11                         text11       00F494
__ptext12                         text12       00F586
__ptext13                         text13       00F9A4
__ptext14                         text14       00F6EC
__ptext15                         text15       00F7E0
__ptext16                         text16       00F78A
__ptext17                         text17       00F83A
__ptext18                         text18       00F560
__ptext19                         text19       00F606
__ptext2                          text2        00FC58
__ptext20                         text20       00F474
__ptext21                         text21       00F46E
__ptext22                         text22       00F53A
__ptext23                         text23       00F4D2
__ptext24                         text24       00F4F2
__ptext25                         text25       00F66A
__ptext3                          text3        00F46A
__ptext4                          text4        00F466
__ptext5                          text5        00F738
__ptext6                          text6        00F516
__ptext7                          text7        00F484
__ptext8                          text8        00F5AE
__ptext9                          text9        00F4BC
__ramtop                          ramtop       001000
__size_of_APP_FlashingDot         (abs)        000000
__size_of_APP_Init                (abs)        000000
__size_of_EVE_AddrForRd           (abs)        000000
__size_of_EVE_AddrForWr           (abs)        000000
__size_of_EVE_CmdWrite            (abs)        000000
__size_of_EVE_IncCMDOffset        (abs)        000000
__size_of_EVE_MemRead32           (abs)        000000
__size_of_EVE_MemRead8            (abs)        000000
__size_of_EVE_MemWrite16          (abs)        000000
__size_of_EVE_MemWrite32          (abs)        000000
__size_of_EVE_MemWrite8           (abs)        000000
__size_of_EVE_Read32              (abs)        000000
__size_of_EVE_Read8               (abs)        000000
__size_of_EVE_WaitCmdFifoEmpty    (abs)        000000
__size_of_EVE_Write16             (abs)        000000
__size_of_EVE_Write32             (abs)        000000
__size_of_EVE_Write8              (abs)        000000
__size_of_MCU_CShigh              (abs)        000000
__size_of_MCU_CSlow               (abs)        000000
__size_of_MCU_Delay_20ms          (abs)        000000
__size_of_MCU_Delay_500ms         (abs)        000000
__size_of_MCU_Init                (abs)        000000
__size_of_MCU_PDhigh              (abs)        000000
__size_of_MCU_PDlow               (abs)        000000
__size_of_MCU_SPIReadWrite        (abs)        000000
__size_of_main                    (abs)        000000
__smallconst                      smallconst   000000
_cmdBufferRd                      bssCOMRAM    000007
_cmdBufferWr                      bssCOMRAM    000009
_cmdOffset                        bssCOMRAM    00000B
_color                            bssCOMRAM    000028
_dly                              bssCOMRAM    000023
_dummyRead                        bssCOMRAM    000024
_lcdHcycle                        bssCOMRAM    00000D
_lcdHeight                        bssCOMRAM    00000F
_lcdHoffset                       bssCOMRAM    000011
_lcdHsync0                        bssCOMRAM    000013
_lcdHsync1                        bssCOMRAM    000015
_lcdPclk                          bssCOMRAM    000025
_lcdPclkpol                       bssCOMRAM    000026
_lcdSwizzle                       bssCOMRAM    000027
_lcdVcycle                        bssCOMRAM    000017
_lcdVoffset                       bssCOMRAM    000019
_lcdVsync0                        bssCOMRAM    00001B
_lcdVsync1                        bssCOMRAM    00001D
_lcdWidth                         bssCOMRAM    00001F
_main                             text0        00F4A8
_point_size                       dataCOMRAM   000058
_ramCommandBuffer                 dataCOMRAM   000050
_ramDisplayList                   dataCOMRAM   000054
end_of_initialization             cinit        00F664
intlevel0                         text         000000
intlevel1                         text         000000
intlevel2                         text         000000
intlevel3                         text         000000
stackhi                           (abs)        000F37
stacklo                           (abs)        000060
start                             init         000000
start_initialization              cinit        00F638


FUNCTION INFORMATION:

 *************** function _main *****************
 Defined at:
		line 97 in file "main.c"
 Parameters:    Size  Location     Type
		None
 Auto vars:     Size  Location     Type
		None
 Return value:  Size  Location     Type
		None               void
 Registers used:
		wreg, status,2, status,0, cstack
 Tracked objects:
		On entry : 
		On exit  : 
		Unchanged: 
 Data sizes:     COMRAM   BANK0   BANK1   BANK2   BANK3   BANK4   BANK5   BANK6   BANK7   BANK8   BANK9  BANK10  BANK11  BANK12  BANK13  BANK14  BANK15
      Params:         0       0       0       0       0       0       0       0       0       0       0       0       0       0       0       0       0
      Locals:         0       0       0       0       0       0       0       0       0       0       0       0       0       0       0       0       0
      Temps:          0       0       0       0       0       0       0       0       0       0       0       0       0       0       0       0       0
      Totals:         0       0       0       0       0       0       0       0       0       0       0       0       0       0       0       0       0
Total ram usage:        0 bytes
 Hardware stack levels required when called:    5
 This function calls:
		_APP_FlashingDot
		_APP_Init
		_MCU_Init
 This function is called by:
		Startup code after reset
 This function uses a non-reentrant model


 *************** function _MCU_Init *****************
 Defined at:
		line 77 in file "MCU_Layer.c"
 Parameters:    Size  Location     Type
		None
 Auto vars:     Size  Location     Type
		None
 Return value:  Size  Location     Type
		None               void
 Registers used:
		wreg, status,2
 Tracked objects:
		On entry : 
		On exit  : 
		Unchanged: 
 Data sizes:     COMRAM   BANK0   BANK1   BANK2   BANK3   BANK4   BANK5   BANK6   BANK7   BANK8   BANK9  BANK10  BANK11  BANK12  BANK13  BANK14  BANK15
      Params:         0       0       0       0       0       0       0       0       0       0       0       0       0       0       0       0       0
      Locals:         0       0       0       0       0       0       0       0       0       0       0       0       0       0       0       0       0
      Temps:          0       0       0       0       0       0       0       0       0       0       0       0       0       0       0       0       0
      Totals:         0       0       0       0       0       0       0       0       0       0       0       0       0       0       0       0       0
Total ram usage:        0 bytes
 Hardware stack levels used:    1
 This function calls:
		Nothing
 This function is called by:
		_main
 This function uses a non-reentrant model


 *************** function _APP_Init *****************
 Defined at:
		line 111 in file "main.c"
 Parameters:    Size  Location     Type
		None
 Auto vars:     Size  Location     Type
		None
 Return value:  Size  Location     Type
		None               void
 Registers used:
		wreg, status,2, status,0, cstack
 Tracked objects:
		On entry : 
		On exit  : 
		Unchanged: 
 Data sizes:     COMRAM   BANK0   BANK1   BANK2   BANK3   BANK4   BANK5   BANK6   BANK7   BANK8   BANK9  BANK10  BANK11  BANK12  BANK13  BANK14  BANK15
      Params:         0       0       0       0       0       0       0       0       0       0       0       0       0       0       0       0       0
      Locals:         0       0       0       0       0       0       0       0       0       0       0       0       0       0       0       0       0
      Temps:          0       0       0       0       0       0       0       0       0       0       0       0       0       0       0       0       0
      Totals:         0       0       0       0       0       0       0       0       0       0       0       0       0       0       0       0       0
Total ram usage:        0 bytes
 Hardware stack levels used:    1
 Hardware stack levels required when called:    3
 This function calls:
		_EVE_CmdWrite
		_EVE_MemRead8
		_EVE_MemWrite16
		_EVE_MemWrite32
		_EVE_MemWrite8
		_MCU_Delay_20ms
		_MCU_Delay_500ms
		_MCU_PDhigh
		_MCU_PDlow
 This function is called by:
		_main
 This function uses a non-reentrant model


 *************** function _MCU_PDlow *****************
 Defined at:
		line 134 in file "MCU_Layer.c"
 Parameters:    Size  Location     Type
		None
 Auto vars:     Size  Location     Type
		None
 Return value:  Size  Location     Type
		None               void
 Registers used:
		None
 Tracked objects:
		On entry : 
		On exit  : 
		Unchanged: 
 Data sizes:     COMRAM   BANK0   BANK1   BANK2   BANK3   BANK4   BANK5   BANK6   BANK7   BANK8   BANK9  BANK10  BANK11  BANK12  BANK13  BANK14  BANK15
      Params:         0       0       0       0       0       0       0       0       0       0       0       0       0       0       0       0       0
      Locals:         0       0       0       0       0       0       0       0       0       0       0       0       0       0       0       0       0
      Temps:          0       0       0       0       0       0       0       0       0       0       0       0       0       0       0       0       0
      Totals:         0       0       0       0       0       0       0       0       0       0       0       0       0       0       0       0       0
Total ram usage:        0 bytes
 Hardware stack levels used:    1
 This function calls:
		Nothing
 This function is called by:
		_APP_Init
 This function uses a non-reentrant model


 *************** function _MCU_PDhigh *****************
 Defined at:
		line 140 in file "MCU_Layer.c"
 Parameters:    Size  Location     Type
		None
 Auto vars:     Size  Location     Type
		None
 Return value:  Size  Location     Type
		None               void
 Registers used:
		None
 Tracked objects:
		On entry : 
		On exit  : 
		Unchanged: 
 Data sizes:     COMRAM   BANK0   BANK1   BANK2   BANK3   BANK4   BANK5   BANK6   BANK7   BANK8   BANK9  BANK10  BANK11  BANK12  BANK13  BANK14  BANK15
      Params:         0       0       0       0       0       0       0       0       0       0       0       0       0       0       0       0       0
      Locals:         0       0       0       0       0       0       0       0       0       0       0       0       0       0       0       0       0
      Temps:          0       0       0       0       0       0       0       0       0       0       0       0       0       0       0       0       0
      Totals:         0       0       0       0       0       0       0       0       0       0       0       0       0       0       0       0       0
Total ram usage:        0 bytes
 Hardware stack levels used:    1
 This function calls:
		Nothing
 This function is called by:
		_APP_Init
 This function uses a non-reentrant model


 *************** function _MCU_Delay_20ms *****************
 Defined at:
		line 211 in file "MCU_Layer.c"
 Parameters:    Size  Location     Type
		None
 Auto vars:     Size  Location     Type
		None
 Return value:  Size  Location     Type
		None               void
 Registers used:
		wreg
 Tracked objects:
		On entry : 
		On exit  : 
		Unchanged: 
 Data sizes:     COMRAM   BANK0   BANK1   BANK2   BANK3   BANK4   BANK5   BANK6   BANK7   BANK8   BANK9  BANK10  BANK11  BANK12  BANK13  BANK14  BANK15
      Params:         0       0       0       0       0       0       0       0       0       0       0       0       0       0       0       0       0
      Locals:         0       0       0       0       0       0       0       0       0       0       0       0       0       0       0       0       0
      Temps:          1       0       0       0       0       0       0       0       0       0       0       0       0       0       0       0       0
      Totals:         1       0       0       0       0       0       0       0       0       0       0       0       0       0       0       0       0
Total ram usage:        1 bytes
 Hardware stack levels used:    1
 This function calls:
		Nothing
 This function is called by:
		_APP_Init
 This function uses a non-reentrant model


 *************** function _EVE_MemWrite8 *****************
 Defined at:
		line 209 in file "EVE_Layer.c"
 Parameters:    Size  Location     Type
  ftAddress       4    7[COMRAM] unsigned long 
  ftData8         1   11[COMRAM] unsigned char 
 Auto vars:     Size  Location     Type
		None
 Return value:  Size  Location     Type
		None               void
 Registers used:
		wreg, status,2, status,0, cstack
 Tracked objects:
		On entry : 
		On exit  : 
		Unchanged: 
 Data sizes:     COMRAM   BANK0   BANK1   BANK2   BANK3   BANK4   BANK5   BANK6   BANK7   BANK8   BANK9  BANK10  BANK11  BANK12  BANK13  BANK14  BANK15
      Params:         5       0       0       0       0       0       0       0       0       0       0       0       0       0       0       0       0
      Locals:         0       0       0       0       0       0       0       0       0       0       0       0       0       0       0       0       0
      Temps:          0       0       0       0       0       0       0       0       0       0       0       0       0       0       0       0       0
      Totals:         5       0       0       0       0       0       0       0       0       0       0       0       0       0       0       0       0
Total ram usage:        5 bytes
 Hardware stack levels used:    1
 Hardware stack levels required when called:    2
 This function calls:
		_EVE_AddrForWr
		_EVE_Write8
		_MCU_CShigh
		_MCU_CSlow
 This function is called by:
		_APP_Init
 This function uses a non-reentrant model


 *************** function _EVE_Write8 *****************
 Defined at:
		line 116 in file "EVE_Layer.c"
 Parameters:    Size  Location     Type
  ftData8         1    wreg     unsigned char 
 Auto vars:     Size  Location     Type
  ftData8         1    3[COMRAM] unsigned char 
  dummyRead       1    2[COMRAM] unsigned char 
 Return value:  Size  Location     Type
		None               void
 Registers used:
		wreg, status,2, cstack
 Tracked objects:
		On entry : 
		On exit  : 
		Unchanged: 
 Data sizes:     COMRAM   BANK0   BANK1   BANK2   BANK3   BANK4   BANK5   BANK6   BANK7   BANK8   BANK9  BANK10  BANK11  BANK12  BANK13  BANK14  BANK15
      Params:         0       0       0       0       0       0       0       0       0       0       0       0       0       0       0       0       0
      Locals:         2       0       0       0       0       0       0       0       0       0       0       0       0       0       0       0       0
      Temps:          0       0       0       0       0       0       0       0       0       0       0       0       0       0       0       0       0
      Totals:         2       0       0       0       0       0       0       0       0       0       0       0       0       0       0       0       0
Total ram usage:        2 bytes
 Hardware stack levels used:    1
 Hardware stack levels required when called:    1
 This function calls:
		_MCU_SPIReadWrite
 This function is called by:
		_EVE_MemWrite8
 This function uses a non-reentrant model


 *************** function _EVE_MemWrite16 *****************
 Defined at:
		line 197 in file "EVE_Layer.c"
 Parameters:    Size  Location     Type
  ftAddress       4    7[COMRAM] unsigned long 
  ftData16        2   11[COMRAM] unsigned int 
 Auto vars:     Size  Location     Type
		None
 Return value:  Size  Location     Type
		None               void
 Registers used:
		wreg, status,2, status,0, cstack
 Tracked objects:
		On entry : 
		On exit  : 
		Unchanged: 
 Data sizes:     COMRAM   BANK0   BANK1   BANK2   BANK3   BANK4   BANK5   BANK6   BANK7   BANK8   BANK9  BANK10  BANK11  BANK12  BANK13  BANK14  BANK15
      Params:         6       0       0       0       0       0       0       0       0       0       0       0       0       0       0       0       0
      Locals:         0       0       0       0       0       0       0       0       0       0       0       0       0       0       0       0       0
      Temps:          0       0       0       0       0       0       0       0       0       0       0       0       0       0       0       0       0
      Totals:         6       0       0       0       0       0       0       0       0       0       0       0       0       0       0       0       0
Total ram usage:        6 bytes
 Hardware stack levels used:    1
 Hardware stack levels required when called:    2
 This function calls:
		_EVE_AddrForWr
		_EVE_Write16
		_MCU_CShigh
		_MCU_CSlow
 This function is called by:
		_APP_Init
 This function uses a non-reentrant model


 *************** function _EVE_Write16 *****************
 Defined at:
		line 105 in file "EVE_Layer.c"
 Parameters:    Size  Location     Type
  ftData16        2    2[COMRAM] unsigned int 
 Auto vars:     Size  Location     Type
  dummyRead       1    4[COMRAM] unsigned char 
 Return value:  Size  Location     Type
		None               void
 Registers used:
		wreg, status,2, cstack
 Tracked objects:
		On entry : 
		On exit  : 
		Unchanged: 
 Data sizes:     COMRAM   BANK0   BANK1   BANK2   BANK3   BANK4   BANK5   BANK6   BANK7   BANK8   BANK9  BANK10  BANK11  BANK12  BANK13  BANK14  BANK15
      Params:         2       0       0       0       0       0       0       0       0       0       0       0       0       0       0       0       0
      Locals:         1       0       0       0       0       0       0       0       0       0       0       0       0       0       0       0       0
      Temps:          0       0       0       0       0       0       0       0       0       0       0       0       0       0       0       0       0
      Totals:         3       0       0       0       0       0       0       0       0       0       0       0       0       0       0       0       0
Total ram usage:        3 bytes
 Hardware stack levels used:    1
 Hardware stack levels required when called:    1
 This function calls:
		_MCU_SPIReadWrite
 This function is called by:
		_EVE_MemWrite16
 This function uses a non-reentrant model


 *************** function _EVE_MemRead8 *****************
 Defined at:
		line 255 in file "EVE_Layer.c"
 Parameters:    Size  Location     Type
  ftAddress       4    7[COMRAM] unsigned long 
 Auto vars:     Size  Location     Type
  ftData8         1   11[COMRAM] unsigned char 
 Return value:  Size  Location     Type
                  1    wreg      unsigned char 
 Registers used:
		wreg, status,2, cstack
 Tracked objects:
		On entry : 
		On exit  : 
		Unchanged: 
 Data sizes:     COMRAM   BANK0   BANK1   BANK2   BANK3   BANK4   BANK5   BANK6   BANK7   BANK8   BANK9  BANK10  BANK11  BANK12  BANK13  BANK14  BANK15
      Params:         4       0       0       0       0       0       0       0       0       0       0       0       0       0       0       0       0
      Locals:         1       0       0       0       0       0       0       0       0       0       0       0       0       0       0       0       0
      Temps:          0       0       0       0       0       0       0       0       0       0       0       0       0       0       0       0       0
      Totals:         5       0       0       0       0       0       0       0       0       0       0       0       0       0       0       0       0
Total ram usage:        5 bytes
 Hardware stack levels used:    1
 Hardware stack levels required when called:    2
 This function calls:
		_EVE_AddrForRd
		_EVE_Read8
		_MCU_CShigh
		_MCU_CSlow
 This function is called by:
		_APP_Init
 This function uses a non-reentrant model


 *************** function _EVE_Read8 *****************
 Defined at:
		line 166 in file "EVE_Layer.c"
 Parameters:    Size  Location     Type
		None
 Auto vars:     Size  Location     Type
  ftData8         1    2[COMRAM] unsigned char 
 Return value:  Size  Location     Type
                  1    wreg      unsigned char 
 Registers used:
		wreg, status,2, cstack
 Tracked objects:
		On entry : 
		On exit  : 
		Unchanged: 
 Data sizes:     COMRAM   BANK0   BANK1   BANK2   BANK3   BANK4   BANK5   BANK6   BANK7   BANK8   BANK9  BANK10  BANK11  BANK12  BANK13  BANK14  BANK15
      Params:         0       0       0       0       0       0       0       0       0       0       0       0       0       0       0       0       0
      Locals:         1       0       0       0       0       0       0       0       0       0       0       0       0       0       0       0       0
      Temps:          0       0       0       0       0       0       0       0       0       0       0       0       0       0       0       0       0
      Totals:         1       0       0       0       0       0       0       0       0       0       0       0       0       0       0       0       0
Total ram usage:        1 bytes
 Hardware stack levels used:    1
 Hardware stack levels required when called:    1
 This function calls:
		_MCU_SPIReadWrite
 This function is called by:
		_EVE_MemRead8
 This function uses a non-reentrant model


 *************** function _EVE_CmdWrite *****************
 Defined at:
		line 277 in file "EVE_Layer.c"
 Parameters:    Size  Location     Type
  EVECmd          1    wreg     unsigned char 
  Param           1    2[COMRAM] unsigned char 
 Auto vars:     Size  Location     Type
  EVECmd          1    3[COMRAM] unsigned char 
  dummyRead       1    4[COMRAM] unsigned char 
 Return value:  Size  Location     Type
		None               void
 Registers used:
		wreg, status,2, cstack
 Tracked objects:
		On entry : 
		On exit  : 
		Unchanged: 
 Data sizes:     COMRAM   BANK0   BANK1   BANK2   BANK3   BANK4   BANK5   BANK6   BANK7   BANK8   BANK9  BANK10  BANK11  BANK12  BANK13  BANK14  BANK15
      Params:         1       0       0       0       0       0       0       0       0       0       0       0       0       0       0       0       0
      Locals:         2       0       0       0       0       0       0       0       0       0       0       0       0       0       0       0       0
      Temps:          0       0       0       0       0       0       0       0       0       0       0       0       0       0       0       0       0
      Totals:         3       0       0       0       0       0       0       0       0       0       0       0       0       0       0       0       0
Total ram usage:        3 bytes
 Hardware stack levels used:    1
 Hardware stack levels required when called:    1
 This function calls:
		_MCU_CShigh
		_MCU_CSlow
		_MCU_SPIReadWrite
 This function is called by:
		_APP_Init
 This function uses a non-reentrant model


 *************** function _APP_FlashingDot *****************
 Defined at:
		line 225 in file "main.c"
 Parameters:    Size  Location     Type
		None
 Auto vars:     Size  Location     Type
		None
 Return value:  Size  Location     Type
		None               void
 Registers used:
		wreg, status,2, status,0, cstack
 Tracked objects:
		On entry : 
		On exit  : 
		Unchanged: 
 Data sizes:     COMRAM   BANK0   BANK1   BANK2   BANK3   BANK4   BANK5   BANK6   BANK7   BANK8   BANK9  BANK10  BANK11  BANK12  BANK13  BANK14  BANK15
      Params:         0       0       0       0       0       0       0       0       0       0       0       0       0       0       0       0       0
      Locals:         0       0       0       0       0       0       0       0       0       0       0       0       0       0       0       0       0
      Temps:          4       0       0       0       0       0       0       0       0       0       0       0       0       0       0       0       0
      Totals:         4       0       0       0       0       0       0       0       0       0       0       0       0       0       0       0       0
Total ram usage:        4 bytes
 Hardware stack levels used:    1
 Hardware stack levels required when called:    4
 This function calls:
		_EVE_AddrForWr
		_EVE_IncCMDOffset
		_EVE_MemWrite32
		_EVE_WaitCmdFifoEmpty
		_EVE_Write32
		_MCU_CShigh
		_MCU_CSlow
		_MCU_Delay_500ms
 This function is called by:
		_main
 This function uses a non-reentrant model


 *************** function _MCU_Delay_500ms *****************
 Defined at:
		line 223 in file "MCU_Layer.c"
 Parameters:    Size  Location     Type
		None
 Auto vars:     Size  Location     Type
  dly             1    1[COMRAM] unsigned char 
 Return value:  Size  Location     Type
		None               void
 Registers used:
		wreg, status,2, status,0
 Tracked objects:
		On entry : 
		On exit  : 
		Unchanged: 
 Data sizes:     COMRAM   BANK0   BANK1   BANK2   BANK3   BANK4   BANK5   BANK6   BANK7   BANK8   BANK9  BANK10  BANK11  BANK12  BANK13  BANK14  BANK15
      Params:         0       0       0       0       0       0       0       0       0       0       0       0       0       0       0       0       0
      Locals:         1       0       0       0       0       0       0       0       0       0       0       0       0       0       0       0       0
      Temps:          1       0       0       0       0       0       0       0       0       0       0       0       0       0       0       0       0
      Totals:         2       0       0       0       0       0       0       0       0       0       0       0       0       0       0       0       0
Total ram usage:        2 bytes
 Hardware stack levels used:    1
 This function calls:
		Nothing
 This function is called by:
		_APP_Init
		_APP_FlashingDot
 This function uses a non-reentrant model


 *************** function _EVE_WaitCmdFifoEmpty *****************
 Defined at:
		line 311 in file "EVE_Layer.c"
 Parameters:    Size  Location     Type
		None
 Auto vars:     Size  Location     Type
  WritePointer    2   30[COMRAM] unsigned int 
  ReadPointer     2   28[COMRAM] unsigned int 
 Return value:  Size  Location     Type
                  2   26[COMRAM] unsigned int 
 Registers used:
		wreg, status,2, status,0, cstack
 Tracked objects:
		On entry : 
		On exit  : 
		Unchanged: 
 Data sizes:     COMRAM   BANK0   BANK1   BANK2   BANK3   BANK4   BANK5   BANK6   BANK7   BANK8   BANK9  BANK10  BANK11  BANK12  BANK13  BANK14  BANK15
      Params:         2       0       0       0       0       0       0       0       0       0       0       0       0       0       0       0       0
      Locals:         4       0       0       0       0       0       0       0       0       0       0       0       0       0       0       0       0
      Temps:          0       0       0       0       0       0       0       0       0       0       0       0       0       0       0       0       0
      Totals:         6       0       0       0       0       0       0       0       0       0       0       0       0       0       0       0       0
Total ram usage:        6 bytes
 Hardware stack levels used:    1
 Hardware stack levels required when called:    3
 This function calls:
		_EVE_MemRead32
 This function is called by:
		_APP_FlashingDot
 This function uses a non-reentrant model


 *************** function _EVE_MemRead32 *****************
 Defined at:
		line 223 in file "EVE_Layer.c"
 Parameters:    Size  Location     Type
  ftAddress       4   18[COMRAM] unsigned long 
 Auto vars:     Size  Location     Type
  ftData32        4   22[COMRAM] unsigned long 
 Return value:  Size  Location     Type
                  4   18[COMRAM] unsigned long 
 Registers used:
		wreg, status,2, status,0, cstack
 Tracked objects:
		On entry : 
		On exit  : 
		Unchanged: 
 Data sizes:     COMRAM   BANK0   BANK1   BANK2   BANK3   BANK4   BANK5   BANK6   BANK7   BANK8   BANK9  BANK10  BANK11  BANK12  BANK13  BANK14  BANK15
      Params:         4       0       0       0       0       0       0       0       0       0       0       0       0       0       0       0       0
      Locals:         4       0       0       0       0       0       0       0       0       0       0       0       0       0       0       0       0
      Temps:          0       0       0       0       0       0       0       0       0       0       0       0       0       0       0       0       0
      Totals:         8       0       0       0       0       0       0       0       0       0       0       0       0       0       0       0       0
Total ram usage:        8 bytes
 Hardware stack levels used:    1
 Hardware stack levels required when called:    2
 This function calls:
		_EVE_AddrForRd
		_EVE_Read32
		_MCU_CShigh
		_MCU_CSlow
 This function is called by:
		_EVE_WaitCmdFifoEmpty
 This function uses a non-reentrant model


 *************** function _EVE_Read32 *****************
 Defined at:
		line 124 in file "EVE_Layer.c"
 Parameters:    Size  Location     Type
		None
 Auto vars:     Size  Location     Type
  tempData32      4   14[COMRAM] unsigned long 
  ftData32        4   10[COMRAM] unsigned long 
 Return value:  Size  Location     Type
                  4    2[COMRAM] unsigned long 
 Registers used:
		wreg, status,2, status,0, cstack
 Tracked objects:
		On entry : 
		On exit  : 
		Unchanged: 
 Data sizes:     COMRAM   BANK0   BANK1   BANK2   BANK3   BANK4   BANK5   BANK6   BANK7   BANK8   BANK9  BANK10  BANK11  BANK12  BANK13  BANK14  BANK15
      Params:         4       0       0       0       0       0       0       0       0       0       0       0       0       0       0       0       0
      Locals:         8       0       0       0       0       0       0       0       0       0       0       0       0       0       0       0       0
      Temps:          4       0       0       0       0       0       0       0       0       0       0       0       0       0       0       0       0
      Totals:        16       0       0       0       0       0       0       0       0       0       0       0       0       0       0       0       0
Total ram usage:       16 bytes
 Hardware stack levels used:    1
 Hardware stack levels required when called:    1
 This function calls:
		_MCU_SPIReadWrite
 This function is called by:
		_EVE_MemRead32
 This function uses a non-reentrant model


 *************** function _EVE_AddrForRd *****************
 Defined at:
		line 77 in file "EVE_Layer.c"
 Parameters:    Size  Location     Type
  ftAddress       4    2[COMRAM] unsigned long 
 Auto vars:     Size  Location     Type
  dummyRead       1    6[COMRAM] unsigned char 
 Return value:  Size  Location     Type
		None               void
 Registers used:
		wreg, status,2, cstack
 Tracked objects:
		On entry : 
		On exit  : 
		Unchanged: 
 Data sizes:     COMRAM   BANK0   BANK1   BANK2   BANK3   BANK4   BANK5   BANK6   BANK7   BANK8   BANK9  BANK10  BANK11  BANK12  BANK13  BANK14  BANK15
      Params:         4       0       0       0       0       0       0       0       0       0       0       0       0       0       0       0       0
      Locals:         1       0       0       0       0       0       0       0       0       0       0       0       0       0       0       0       0
      Temps:          0       0       0       0       0       0       0       0       0       0       0       0       0       0       0       0       0
      Totals:         5       0       0       0       0       0       0       0       0       0       0       0       0       0       0       0       0
Total ram usage:        5 bytes
 Hardware stack levels used:    1
 Hardware stack levels required when called:    1
 This function calls:
		_MCU_SPIReadWrite
 This function is called by:
		_EVE_MemRead32
		_EVE_MemRead8
		_EVE_MemRead16
 This function uses a non-reentrant model


 *************** function _EVE_MemWrite32 *****************
 Defined at:
		line 184 in file "EVE_Layer.c"
 Parameters:    Size  Location     Type
  ftAddress       4    7[COMRAM] unsigned long 
  ftData32        4   11[COMRAM] unsigned long 
 Auto vars:     Size  Location     Type
		None
 Return value:  Size  Location     Type
		None               void
 Registers used:
		wreg, status,2, status,0, cstack
 Tracked objects:
		On entry : 
		On exit  : 
		Unchanged: 
 Data sizes:     COMRAM   BANK0   BANK1   BANK2   BANK3   BANK4   BANK5   BANK6   BANK7   BANK8   BANK9  BANK10  BANK11  BANK12  BANK13  BANK14  BANK15
      Params:         8       0       0       0       0       0       0       0       0       0       0       0       0       0       0       0       0
      Locals:         0       0       0       0       0       0       0       0       0       0       0       0       0       0       0       0       0
      Temps:          0       0       0       0       0       0       0       0       0       0       0       0       0       0       0       0       0
      Totals:         8       0       0       0       0       0       0       0       0       0       0       0       0       0       0       0       0
Total ram usage:        8 bytes
 Hardware stack levels used:    1
 Hardware stack levels required when called:    2
 This function calls:
		_EVE_AddrForWr
		_EVE_Write32
		_MCU_CShigh
		_MCU_CSlow
 This function is called by:
		_APP_Init
		_APP_FlashingDot
 This function uses a non-reentrant model


 *************** function _MCU_CSlow *****************
 Defined at:
		line 120 in file "MCU_Layer.c"
 Parameters:    Size  Location     Type
		None
 Auto vars:     Size  Location     Type
		None
 Return value:  Size  Location     Type
		None               void
 Registers used:
		None
 Tracked objects:
		On entry : 
		On exit  : 
		Unchanged: 
 Data sizes:     COMRAM   BANK0   BANK1   BANK2   BANK3   BANK4   BANK5   BANK6   BANK7   BANK8   BANK9  BANK10  BANK11  BANK12  BANK13  BANK14  BANK15
      Params:         0       0       0       0       0       0       0       0       0       0       0       0       0       0       0       0       0
      Locals:         0       0       0       0       0       0       0       0       0       0       0       0       0       0       0       0       0
      Temps:          0       0       0       0       0       0       0       0       0       0       0       0       0       0       0       0       0
      Totals:         0       0       0       0       0       0       0       0       0       0       0       0       0       0       0       0       0
Total ram usage:        0 bytes
 Hardware stack levels used:    1
 This function calls:
		Nothing
 This function is called by:
		_APP_FlashingDot
		_EVE_MemWrite32
		_EVE_MemWrite16
		_EVE_MemWrite8
		_EVE_MemRead32
		_EVE_MemRead8
		_EVE_CmdWrite
		_EVE_MemRead16
 This function uses a non-reentrant model


 *************** function _MCU_CShigh *****************
 Defined at:
		line 127 in file "MCU_Layer.c"
 Parameters:    Size  Location     Type
		None
 Auto vars:     Size  Location     Type
		None
 Return value:  Size  Location     Type
		None               void
 Registers used:
		None
 Tracked objects:
		On entry : 
		On exit  : 
		Unchanged: 
 Data sizes:     COMRAM   BANK0   BANK1   BANK2   BANK3   BANK4   BANK5   BANK6   BANK7   BANK8   BANK9  BANK10  BANK11  BANK12  BANK13  BANK14  BANK15
      Params:         0       0       0       0       0       0       0       0       0       0       0       0       0       0       0       0       0
      Locals:         0       0       0       0       0       0       0       0       0       0       0       0       0       0       0       0       0
      Temps:          0       0       0       0       0       0       0       0       0       0       0       0       0       0       0       0       0
      Totals:         0       0       0       0       0       0       0       0       0       0       0       0       0       0       0       0       0
Total ram usage:        0 bytes
 Hardware stack levels used:    1
 This function calls:
		Nothing
 This function is called by:
		_APP_FlashingDot
		_EVE_MemWrite32
		_EVE_MemWrite16
		_EVE_MemWrite8
		_EVE_MemRead32
		_EVE_MemRead8
		_EVE_CmdWrite
		_EVE_MemRead16
 This function uses a non-reentrant model


 *************** function _EVE_Write32 *****************
 Defined at:
		line 91 in file "EVE_Layer.c"
 Parameters:    Size  Location     Type
  ftData32        4    2[COMRAM] unsigned long 
 Auto vars:     Size  Location     Type
  dummyRead       1    6[COMRAM] unsigned char 
 Return value:  Size  Location     Type
		None               void
 Registers used:
		wreg, status,2, cstack
 Tracked objects:
		On entry : 
		On exit  : 
		Unchanged: 
 Data sizes:     COMRAM   BANK0   BANK1   BANK2   BANK3   BANK4   BANK5   BANK6   BANK7   BANK8   BANK9  BANK10  BANK11  BANK12  BANK13  BANK14  BANK15
      Params:         4       0       0       0       0       0       0       0       0       0       0       0       0       0       0       0       0
      Locals:         1       0       0       0       0       0       0       0       0       0       0       0       0       0       0       0       0
      Temps:          0       0       0       0       0       0       0       0       0       0       0       0       0       0       0       0       0
      Totals:         5       0       0       0       0       0       0       0       0       0       0       0       0       0       0       0       0
Total ram usage:        5 bytes
 Hardware stack levels used:    1
 Hardware stack levels required when called:    1
 This function calls:
		_MCU_SPIReadWrite
 This function is called by:
		_APP_FlashingDot
		_EVE_MemWrite32
 This function uses a non-reentrant model


 *************** function _EVE_AddrForWr *****************
 Defined at:
		line 65 in file "EVE_Layer.c"
 Parameters:    Size  Location     Type
  ftAddress       4    2[COMRAM] unsigned long 
 Auto vars:     Size  Location     Type
  dummyRead       1    6[COMRAM] unsigned char 
 Return value:  Size  Location     Type
		None               void
 Registers used:
		wreg, status,2, status,0, cstack
 Tracked objects:
		On entry : 
		On exit  : 
		Unchanged: 
 Data sizes:     COMRAM   BANK0   BANK1   BANK2   BANK3   BANK4   BANK5   BANK6   BANK7   BANK8   BANK9  BANK10  BANK11  BANK12  BANK13  BANK14  BANK15
      Params:         4       0       0       0       0       0       0       0       0       0       0       0       0       0       0       0       0
      Locals:         1       0       0       0       0       0       0       0       0       0       0       0       0       0       0       0       0
      Temps:          0       0       0       0       0       0       0       0       0       0       0       0       0       0       0       0       0
      Totals:         5       0       0       0       0       0       0       0       0       0       0       0       0       0       0       0       0
Total ram usage:        5 bytes
 Hardware stack levels used:    1
 Hardware stack levels required when called:    1
 This function calls:
		_MCU_SPIReadWrite
 This function is called by:
		_APP_FlashingDot
		_EVE_MemWrite32
		_EVE_MemWrite16
		_EVE_MemWrite8
 This function uses a non-reentrant model


 *************** function _MCU_SPIReadWrite *****************
 Defined at:
		line 148 in file "MCU_Layer.c"
 Parameters:    Size  Location     Type
  DataToWrite     1    wreg     unsigned char 
 Auto vars:     Size  Location     Type
  DataToWrite     1    0[COMRAM] unsigned char 
  DataRead        1    1[COMRAM] unsigned char 
 Return value:  Size  Location     Type
                  1    wreg      unsigned char 
 Registers used:
		wreg, status,2
 Tracked objects:
		On entry : 
		On exit  : 
		Unchanged: 
 Data sizes:     COMRAM   BANK0   BANK1   BANK2   BANK3   BANK4   BANK5   BANK6   BANK7   BANK8   BANK9  BANK10  BANK11  BANK12  BANK13  BANK14  BANK15
      Params:         0       0       0       0       0       0       0       0       0       0       0       0       0       0       0       0       0
      Locals:         2       0       0       0       0       0       0       0       0       0       0       0       0       0       0       0       0
      Temps:          0       0       0       0       0       0       0       0       0       0       0       0       0       0       0       0       0
      Totals:         2       0       0       0       0       0       0       0       0       0       0       0       0       0       0       0       0
Total ram usage:        2 bytes
 Hardware stack levels used:    1
 This function calls:
		Nothing
 This function is called by:
		_EVE_AddrForWr
		_EVE_AddrForRd
		_EVE_Write32
		_EVE_Write16
		_EVE_Write8
		_EVE_Read32
		_EVE_Read8
		_EVE_CmdWrite
		_EVE_Read16
 This function uses a non-reentrant model


 *************** function _EVE_IncCMDOffset *****************
 Defined at:
		line 295 in file "EVE_Layer.c"
 Parameters:    Size  Location     Type
  currentOffse    2    0[COMRAM] unsigned int 
  commandSize     1    2[COMRAM] unsigned char 
 Auto vars:     Size  Location     Type
  newOffset       2    3[COMRAM] unsigned int 
 Return value:  Size  Location     Type
                  2    0[COMRAM] unsigned int 
 Registers used:
		wreg, status,2, status,0
 Tracked objects:
		On entry : 
		On exit  : 
		Unchanged: 
 Data sizes:     COMRAM   BANK0   BANK1   BANK2   BANK3   BANK4   BANK5   BANK6   BANK7   BANK8   BANK9  BANK10  BANK11  BANK12  BANK13  BANK14  BANK15
      Params:         3       0       0       0       0       0       0       0       0       0       0       0       0       0       0       0       0
      Locals:         2       0       0       0       0       0       0       0       0       0       0       0       0       0       0       0       0
      Temps:          0       0       0       0       0       0       0       0       0       0       0       0       0       0       0       0       0
      Totals:         5       0       0       0       0       0       0       0       0       0       0       0       0       0       0       0       0
Total ram usage:        5 bytes
 Hardware stack levels used:    1
 This function calls:
		Nothing
 This function is called by:
		_APP_FlashingDot
 This function uses a non-reentrant model



MODULE INFORMATION

Module		Function		Class		Link	Load	Size
shared
		__initialization		CODE           	F638	0000	45

shared estimated size: 45

MCU_Layer.c
		_MCU_Delay_20ms		CODE           	F738	0000	83
		_MCU_SPIReadWrite		CODE           	F4F2	0000	37
		_MCU_Delay_500ms		CODE           	F6EC	0000	77
		_MCU_CSlow     		CODE           	F474	0000	7
		_MCU_PDlow     		CODE           	F46A	0000	5
		_MCU_Init      		CODE           	F6A6	0000	71
		_MCU_CShigh    		CODE           	F46E	0000	7
		_MCU_PDhigh    		CODE           	F466	0000	5

MCU_Layer.c estimated size: 292

main.c
		_main          		CODE           	F4A8	0000	21
		_APP_FlashingDot		CODE           	F9A4	0000	693
		_APP_Init      		CODE           	FC58	0000	937

main.c estimated size: 1651

EVE_Layer.c
		_EVE_Write8    		CODE           	F484	0000	17
		_EVE_Write32   		CODE           	F53A	0000	39
		_EVE_Write16   		CODE           	F4BC	0000	23
		_EVE_WaitCmdFifoEmpty		CODE           	F7E0	0000	91
		_EVE_AddrForRd 		CODE           	F560	0000	39
		_EVE_AddrForWr 		CODE           	F4D2	0000	33
		_EVE_Read8     		CODE           	F494	0000	21
		_EVE_Read32    		CODE           	F83A	0000	363
		_EVE_IncCMDOffset		CODE           	F66A	0000	61
		_EVE_CmdWrite  		CODE           	F586	0000	41
		_EVE_MemRead8  		CODE           	F5D8	0000	47
		_EVE_MemRead32 		CODE           	F78A	0000	87
		_EVE_MemWrite8 		CODE           	F516	0000	37
		_EVE_MemWrite32		CODE           	F606	0000	51
		_EVE_MemWrite16		CODE           	F5AE	0000	43

EVE_Layer.c estimated size: 993

